; Function Attrs: nounwind uwtable
define hidden void @je_hpa_shard_destroy(ptr noundef readnone captures(none) %0, ptr noundef %1) local_unnamed_addr #1 {
  %3 = getelementptr inbounds nuw i8, ptr %1, i64 320
  %4 = tail call ptr @je_psset_pick_alloc(ptr noundef nonnull %3, i64 noundef 4096) #8
  %.not6 = icmp eq ptr %4, null
  br i1 %.not6, label %._crit_edge, label %.lr.ph

.lr.ph:                                           ; preds = %2
  %5 = getelementptr inbounds nuw i8, ptr %1, i64 56
  br label %6

6:                                                ; preds = %.lr.ph, %6
  %7 = phi ptr [ %4, %.lr.ph ], [ %11, %6 ]
  tail call void @je_psset_remove(ptr noundef nonnull %3, ptr noundef nonnull %7) #8
  %8 = load ptr, ptr %5, align 8, !tbaa !28
  %9 = getelementptr inbounds nuw i8, ptr %8, i64 264
  %10 = load ptr, ptr %9, align 8, !tbaa !94
  %.val = load ptr, ptr %7, align 8, !tbaa !95
  tail call void %10(ptr noundef %.val, i64 noundef 2097152) #8
  %11 = tail call ptr @je_psset_pick_alloc(ptr noundef nonnull %3, i64 noundef 4096) #8
  %.not = icmp eq ptr %11, null
  br i1 %.not, label %._crit_edge, label %6, !llvm.loop !96

._crit_edge:                                      ; preds = %6, %2
  ret void
}